target datalayout = "e-m:e-p270:32:32-p271:32:32-p272:64:64-i64:64-i128:128-f80:128-n8:16:32:64-S128"
target triple = "x86_64-unknown-linux-gnu"

%struct.LSIState = type { %struct.PCIDevice, ptr, %struct.MemoryRegion, %struct.MemoryRegion, %struct.MemoryRegion, %struct.AddressSpace, i32, i32, i32, i32, [8 x i8], i32, %struct.SCSIBus, i32, i32, i32, %union.anon.4, ptr, i32, i32, i32, i32, i8, i8, i8, i8, i8, i8, i8, i8, i8, i8, i8, i8, i8, i8, i8, i8, i8, i8, i32, i32, i8, i8, i8, i8, i8, i8, i8, i8, i8, i8, i8, i8, i8, i8, i8, i8, i8, i8, i8, i8, i8, i8, i32, i32, i32, i32, i32, i32, i32, i32, i32, i32, i32, i32, i32, i32, [18 x i32], i8, i32, [8192 x i8] }
%struct.PCIDevice = type { %struct.DeviceState, i8, i8, ptr, ptr, ptr, ptr, ptr, i32, %struct.PCIReqIDCache, [64 x i8], [7 x %struct.PCIIORegion], %struct.AddressSpace, %struct.MemoryRegion, %struct.MemoryRegion, ptr, ptr, [3 x ptr], i8, i8, i32, i8, i32, ptr, ptr, ptr, ptr, ptr, ptr, %struct.MemoryRegion, %struct.MemoryRegion, %struct.MemoryRegion, ptr, i8, i32, i8, %struct.PCIExpressDevice, ptr, ptr, i32, i8, %struct.MemoryRegion, i32, ptr, ptr, ptr, ptr, ptr, i32 }
%struct.DeviceState = type { %struct.Object, ptr, ptr, i8, i8, i64, ptr, i32, i8, ptr, %struct.NamedGPIOListHead, %struct.NamedClockListHead, %struct.BusStateHead, i32, i32, i32, %struct.ResettableState, ptr, %struct.MemReentrancyGuard }
%struct.Object = type { ptr, ptr, ptr, i32, ptr }
%struct.NamedGPIOListHead = type { ptr }
%struct.NamedClockListHead = type { ptr }
%struct.BusStateHead = type { ptr }
%struct.ResettableState = type { i32, i8, i8 }
%struct.MemReentrancyGuard = type { i8 }
%struct.PCIReqIDCache = type { ptr, i32 }
%struct.PCIIORegion = type { i64, i64, i8, ptr, ptr }
%struct.PCIExpressDevice = type { i8, i8, i8, i16, %struct.PCIEAERLog, i16, i16, i16, %struct.PCIESriovPF, %struct.PCIESriovVF }
%struct.PCIEAERLog = type { i16, i16, ptr }
%struct.PCIESriovPF = type { i16, [7 x i8], ptr, ptr }
%struct.PCIESriovVF = type { ptr, i16 }
%struct.MemoryRegion = type { %struct.Object, i8, i8, i8, i8, i8, i8, i8, i8, i8, i8, ptr, ptr, ptr, ptr, ptr, ptr, i32, i128, i64, ptr, i64, i8, i8, i8, i8, i8, ptr, i64, i32, %union.anon.1, %union.anon.2, %union.anon.3, ptr, i32, ptr, ptr, i8 }
%union.anon.1 = type { %struct.QTailQLink }
%struct.QTailQLink = type { ptr, ptr }
%union.anon.2 = type { %struct.QTailQLink }
%union.anon.3 = type { %struct.QTailQLink }
%struct.AddressSpace = type { %struct.rcu_head, ptr, ptr, ptr, i32, i32, ptr, %union.anon, %union.anon.0 }
%struct.rcu_head = type { ptr, ptr }
%union.anon = type { %struct.QTailQLink }
%union.anon.0 = type { %struct.QTailQLink }
%struct.SCSIBus = type { %struct.BusState, i32, %struct.SCSISense, ptr, i32 }
%struct.BusState = type { %struct.Object, ptr, ptr, ptr, i32, i8, i8, i32, %union.BusChildHead, %struct.BusStateEntry, %struct.ResettableState }
%union.BusChildHead = type { %struct.QTailQLink }
%struct.BusStateEntry = type { ptr, ptr }
%struct.SCSISense = type { i8, i8, i8 }
%union.anon.4 = type { %struct.QTailQLink }
%struct.timeval = type { i64, i64 }

@.str = private unnamed_addr constant [11 x i8] c"lsi53c895a\00", align 1
@.str.11 = private unnamed_addr constant [29 x i8] c"../qemu/hw/scsi/lsi53c895a.c\00", align 1
@trace_events_enabled_count = external global i32, align 4
@message_with_timestamp = external global i8, align 1
@qemu_loglevel = external global i32, align 4
@.str.285 = private unnamed_addr constant [24 x i8] c"QTAILQ_EMPTY(&s->queue)\00", align 1
@__PRETTY_FUNCTION__.lsi_soft_reset = private unnamed_addr constant [32 x i8] c"void lsi_soft_reset(LSIState *)\00", align 1
@.str.286 = private unnamed_addr constant [12 x i8] c"!s->current\00", align 1
@_TRACE_LSI_RESET_DSTATE = external global i16, align 2
@.str.287 = private unnamed_addr constant [30 x i8] c"%d@%zu.%06zu:lsi_reset Reset\0A\00", align 1
@.str.288 = private unnamed_addr constant [17 x i8] c"lsi_reset Reset\0A\00", align 1
@__func__.LSI53C895A = private unnamed_addr constant [11 x i8] c"LSI53C895A\00", align 1

; Function Attrs: nounwind sspstrong uwtable
define internal zeroext i1 @qemu_loglevel_mask(i32 noundef %mask) #0 {
entry:
  %mask.addr = alloca i32, align 4
  store i32 %mask, ptr %mask.addr, align 4
  %0 = load i32, ptr @qemu_loglevel, align 4
  %1 = load i32, ptr %mask.addr, align 4
  %and = and i32 %0, %1
  %cmp = icmp ne i32 %and, 0
  ret i1 %cmp
}

; Function Attrs: nounwind sspstrong uwtable
define internal void @_nocheck__trace_lsi_reset() #0 {
entry:
  %_now = alloca %struct.timeval, align 8
  %0 = load i32, ptr @trace_events_enabled_count, align 4
  %tobool = icmp ne i32 %0, 0
  %lnot = xor i1 %tobool, true
  %lnot1 = xor i1 %lnot, true
  %lnot.ext = zext i1 %lnot1 to i32
  %conv = sext i32 %lnot.ext to i64
  %tobool2 = icmp ne i64 %conv, 0
  br i1 %tobool2, label %land.lhs.true, label %if.end11

land.lhs.true:                                    ; preds = %entry
  %1 = load i16, ptr @_TRACE_LSI_RESET_DSTATE, align 2
  %conv3 = zext i16 %1 to i32
  %tobool4 = icmp ne i32 %conv3, 0
  br i1 %tobool4, label %land.lhs.true5, label %if.end11

land.lhs.true5:                                   ; preds = %land.lhs.true
  %call = call zeroext i1 @qemu_loglevel_mask(i32 noundef 32768)
  br i1 %call, label %if.then, label %if.end11

if.then:                                          ; preds = %land.lhs.true5
  %2 = load i8, ptr @message_with_timestamp, align 1
  %tobool7 = trunc i8 %2 to i1
  br i1 %tobool7, label %if.then8, label %if.else

if.then8:                                         ; preds = %if.then
  %call9 = call i32 @gettimeofday(ptr noundef %_now, ptr noundef null) #10
  %call10 = call i32 @qemu_get_thread_id()
  %tv_sec = getelementptr inbounds %struct.timeval, ptr %_now, i32 0, i32 0
  %3 = load i64, ptr %tv_sec, align 8
  %tv_usec = getelementptr inbounds %struct.timeval, ptr %_now, i32 0, i32 1
  %4 = load i64, ptr %tv_usec, align 8
  call void (ptr, ...) @qemu_log(ptr noundef @.str.287, i32 noundef %call10, i64 noundef %3, i64 noundef %4)
  br label %if.end

if.else:                                          ; preds = %if.then
  call void (ptr, ...) @qemu_log(ptr noundef @.str.288)
  br label %if.end

if.end:                                           ; preds = %if.else, %if.then8
  br label %if.end11

if.end11:                                         ; preds = %if.end, %land.lhs.true5, %land.lhs.true, %entry
  ret void
}

; Function Attrs: nounwind sspstrong uwtable
define internal void @trace_lsi_reset() #0 {
entry:
  call void @_nocheck__trace_lsi_reset()
  ret void
}

; Function Attrs: nounwind sspstrong uwtable
define internal void @lsi_soft_reset(ptr noundef %s) #0 {
entry:
  %s.addr = alloca ptr, align 8
  store ptr %s, ptr %s.addr, align 8
  call void @trace_lsi_reset()
  %0 = load ptr, ptr %s.addr, align 8
  %carry = getelementptr inbounds %struct.LSIState, ptr %0, i32 0, i32 6
  store i32 0, ptr %carry, align 8
  %1 = load ptr, ptr %s.addr, align 8
  %msg_action = getelementptr inbounds %struct.LSIState, ptr %1, i32 0, i32 8
  store i32 0, ptr %msg_action, align 16
  %2 = load ptr, ptr %s.addr, align 8
  %msg_len = getelementptr inbounds %struct.LSIState, ptr %2, i32 0, i32 9
  store i32 0, ptr %msg_len, align 4
  %3 = load ptr, ptr %s.addr, align 8
  %waiting = getelementptr inbounds %struct.LSIState, ptr %3, i32 0, i32 11
  store i32 0, ptr %waiting, align 16
  %4 = load ptr, ptr %s.addr, align 8
  %dsa = getelementptr inbounds %struct.LSIState, ptr %4, i32 0, i32 18
  store i32 0, ptr %dsa, align 16
  %5 = load ptr, ptr %s.addr, align 8
  %dnad = getelementptr inbounds %struct.LSIState, ptr %5, i32 0, i32 20
  store i32 0, ptr %dnad, align 8
  %6 = load ptr, ptr %s.addr, align 8
  %dbc = getelementptr inbounds %struct.LSIState, ptr %6, i32 0, i32 21
  store i32 0, ptr %dbc, align 4
  %7 = load ptr, ptr %s.addr, align 8
  %temp = getelementptr inbounds %struct.LSIState, ptr %7, i32 0, i32 19
  store i32 0, ptr %temp, align 4
  %8 = load ptr, ptr %s.addr, align 8
  %scratch = getelementptr inbounds %struct.LSIState, ptr %8, i32 0, i32 78
  %arraydecay = getelementptr inbounds [18 x i32], ptr %scratch, i64 0, i64 0
  call void @llvm.memset.p0.i64(ptr align 4 %arraydecay, i8 0, i64 72, i1 false)
  %9 = load ptr, ptr %s.addr, align 8
  %istat0 = getelementptr inbounds %struct.LSIState, ptr %9, i32 0, i32 22
  store i8 0, ptr %istat0, align 16
  %10 = load ptr, ptr %s.addr, align 8
  %istat1 = getelementptr inbounds %struct.LSIState, ptr %10, i32 0, i32 23
  store i8 0, ptr %istat1, align 1
  %11 = load ptr, ptr %s.addr, align 8
  %dcmd = getelementptr inbounds %struct.LSIState, ptr %11, i32 0, i32 24
  store i8 64, ptr %dcmd, align 2
  %12 = load ptr, ptr %s.addr, align 8
  %dstat = getelementptr inbounds %struct.LSIState, ptr %12, i32 0, i32 25
  store i8 0, ptr %dstat, align 1
  %13 = load ptr, ptr %s.addr, align 8
  %dien = getelementptr inbounds %struct.LSIState, ptr %13, i32 0, i32 26
  store i8 0, ptr %dien, align 4
  %14 = load ptr, ptr %s.addr, align 8
  %sist0 = getelementptr inbounds %struct.LSIState, ptr %14, i32 0, i32 27
  store i8 0, ptr %sist0, align 1
  %15 = load ptr, ptr %s.addr, align 8
  %sist1 = getelementptr inbounds %struct.LSIState, ptr %15, i32 0, i32 28
  store i8 0, ptr %sist1, align 2
  %16 = load ptr, ptr %s.addr, align 8
  %sien0 = getelementptr inbounds %struct.LSIState, ptr %16, i32 0, i32 29
  store i8 0, ptr %sien0, align 1
  %17 = load ptr, ptr %s.addr, align 8
  %sien1 = getelementptr inbounds %struct.LSIState, ptr %17, i32 0, i32 30
  store i8 0, ptr %sien1, align 8
  %18 = load ptr, ptr %s.addr, align 8
  %mbox0 = getelementptr inbounds %struct.LSIState, ptr %18, i32 0, i32 31
  store i8 0, ptr %mbox0, align 1
  %19 = load ptr, ptr %s.addr, align 8
  %mbox1 = getelementptr inbounds %struct.LSIState, ptr %19, i32 0, i32 32
  store i8 0, ptr %mbox1, align 2
  %20 = load ptr, ptr %s.addr, align 8
  %dfifo = getelementptr inbounds %struct.LSIState, ptr %20, i32 0, i32 33
  store i8 0, ptr %dfifo, align 1
  %21 = load ptr, ptr %s.addr, align 8
  %ctest2 = getelementptr inbounds %struct.LSIState, ptr %21, i32 0, i32 34
  store i8 1, ptr %ctest2, align 4
  %22 = load ptr, ptr %s.addr, align 8
  %ctest3 = getelementptr inbounds %struct.LSIState, ptr %22, i32 0, i32 35
  store i8 0, ptr %ctest3, align 1
  %23 = load ptr, ptr %s.addr, align 8
  %ctest4 = getelementptr inbounds %struct.LSIState, ptr %23, i32 0, i32 36
  store i8 0, ptr %ctest4, align 2
  %24 = load ptr, ptr %s.addr, align 8
  %ctest5 = getelementptr inbounds %struct.LSIState, ptr %24, i32 0, i32 37
  store i8 0, ptr %ctest5, align 1
  %25 = load ptr, ptr %s.addr, align 8
  %ccntl0 = getelementptr inbounds %struct.LSIState, ptr %25, i32 0, i32 38
  store i8 0, ptr %ccntl0, align 16
  %26 = load ptr, ptr %s.addr, align 8
  %ccntl1 = getelementptr inbounds %struct.LSIState, ptr %26, i32 0, i32 39
  store i8 0, ptr %ccntl1, align 1
  %27 = load ptr, ptr %s.addr, align 8
  %dsp = getelementptr inbounds %struct.LSIState, ptr %27, i32 0, i32 40
  store i32 0, ptr %dsp, align 4
  %28 = load ptr, ptr %s.addr, align 8
  %dsps = getelementptr inbounds %struct.LSIState, ptr %28, i32 0, i32 41
  store i32 0, ptr %dsps, align 8
  %29 = load ptr, ptr %s.addr, align 8
  %dmode = getelementptr inbounds %struct.LSIState, ptr %29, i32 0, i32 42
  store i8 0, ptr %dmode, align 4
  %30 = load ptr, ptr %s.addr, align 8
  %dcntl = getelementptr inbounds %struct.LSIState, ptr %30, i32 0, i32 43
  store i8 0, ptr %dcntl, align 1
  %31 = load ptr, ptr %s.addr, align 8
  %scntl0 = getelementptr inbounds %struct.LSIState, ptr %31, i32 0, i32 44
  store i8 -64, ptr %scntl0, align 2
  %32 = load ptr, ptr %s.addr, align 8
  %scntl1 = getelementptr inbounds %struct.LSIState, ptr %32, i32 0, i32 45
  store i8 0, ptr %scntl1, align 1
  %33 = load ptr, ptr %s.addr, align 8
  %scntl2 = getelementptr inbounds %struct.LSIState, ptr %33, i32 0, i32 46
  store i8 0, ptr %scntl2, align 16
  %34 = load ptr, ptr %s.addr, align 8
  %scntl3 = getelementptr inbounds %struct.LSIState, ptr %34, i32 0, i32 47
  store i8 0, ptr %scntl3, align 1
  %35 = load ptr, ptr %s.addr, align 8
  %sstat0 = getelementptr inbounds %struct.LSIState, ptr %35, i32 0, i32 48
  store i8 0, ptr %sstat0, align 2
  %36 = load ptr, ptr %s.addr, align 8
  %sstat1 = getelementptr inbounds %struct.LSIState, ptr %36, i32 0, i32 49
  store i8 0, ptr %sstat1, align 1
  %37 = load ptr, ptr %s.addr, align 8
  %scid = getelementptr inbounds %struct.LSIState, ptr %37, i32 0, i32 50
  store i8 7, ptr %scid, align 4
  %38 = load ptr, ptr %s.addr, align 8
  %sxfer = getelementptr inbounds %struct.LSIState, ptr %38, i32 0, i32 51
  store i8 0, ptr %sxfer, align 1
  %39 = load ptr, ptr %s.addr, align 8
  %socl = getelementptr inbounds %struct.LSIState, ptr %39, i32 0, i32 52
  store i8 0, ptr %socl, align 2
  %40 = load ptr, ptr %s.addr, align 8
  %sdid = getelementptr inbounds %struct.LSIState, ptr %40, i32 0, i32 53
  store i8 0, ptr %sdid, align 1
  %41 = load ptr, ptr %s.addr, align 8
  %ssid = getelementptr inbounds %struct.LSIState, ptr %41, i32 0, i32 54
  store i8 0, ptr %ssid, align 8
  %42 = load ptr, ptr %s.addr, align 8
  %sbcl = getelementptr inbounds %struct.LSIState, ptr %42, i32 0, i32 56
  store i8 0, ptr %sbcl, align 2
  %43 = load ptr, ptr %s.addr, align 8
  %stest1 = getelementptr inbounds %struct.LSIState, ptr %43, i32 0, i32 57
  store i8 0, ptr %stest1, align 1
  %44 = load ptr, ptr %s.addr, align 8
  %stest2 = getelementptr inbounds %struct.LSIState, ptr %44, i32 0, i32 58
  store i8 0, ptr %stest2, align 4
  %45 = load ptr, ptr %s.addr, align 8
  %stest3 = getelementptr inbounds %struct.LSIState, ptr %45, i32 0, i32 59
  store i8 0, ptr %stest3, align 1
  %46 = load ptr, ptr %s.addr, align 8
  %sidl = getelementptr inbounds %struct.LSIState, ptr %46, i32 0, i32 60
  store i8 0, ptr %sidl, align 2
  %47 = load ptr, ptr %s.addr, align 8
  %stime0 = getelementptr inbounds %struct.LSIState, ptr %47, i32 0, i32 61
  store i8 0, ptr %stime0, align 1
  %48 = load ptr, ptr %s.addr, align 8
  %respid0 = getelementptr inbounds %struct.LSIState, ptr %48, i32 0, i32 62
  store i8 -128, ptr %respid0, align 16
  %49 = load ptr, ptr %s.addr, align 8
  %respid1 = getelementptr inbounds %struct.LSIState, ptr %49, i32 0, i32 63
  store i8 0, ptr %respid1, align 1
  %50 = load ptr, ptr %s.addr, align 8
  %mmrs = getelementptr inbounds %struct.LSIState, ptr %50, i32 0, i32 64
  store i32 0, ptr %mmrs, align 4
  %51 = load ptr, ptr %s.addr, align 8
  %mmws = getelementptr inbounds %struct.LSIState, ptr %51, i32 0, i32 65
  store i32 0, ptr %mmws, align 8
  %52 = load ptr, ptr %s.addr, align 8
  %sfs = getelementptr inbounds %struct.LSIState, ptr %52, i32 0, i32 66
  store i32 0, ptr %sfs, align 4
  %53 = load ptr, ptr %s.addr, align 8
  %drs = getelementptr inbounds %struct.LSIState, ptr %53, i32 0, i32 67
  store i32 0, ptr %drs, align 16
  %54 = load ptr, ptr %s.addr, align 8
  %sbms = getelementptr inbounds %struct.LSIState, ptr %54, i32 0, i32 68
  store i32 0, ptr %sbms, align 4
  %55 = load ptr, ptr %s.addr, align 8
  %dbms = getelementptr inbounds %struct.LSIState, ptr %55, i32 0, i32 69
  store i32 0, ptr %dbms, align 8
  %56 = load ptr, ptr %s.addr, align 8
  %dnad64 = getelementptr inbounds %struct.LSIState, ptr %56, i32 0, i32 70
  store i32 0, ptr %dnad64, align 4
  %57 = load ptr, ptr %s.addr, align 8
  %pmjad1 = getelementptr inbounds %struct.LSIState, ptr %57, i32 0, i32 71
  store i32 0, ptr %pmjad1, align 16
  %58 = load ptr, ptr %s.addr, align 8
  %pmjad2 = getelementptr inbounds %struct.LSIState, ptr %58, i32 0, i32 72
  store i32 0, ptr %pmjad2, align 4
  %59 = load ptr, ptr %s.addr, align 8
  %rbc = getelementptr inbounds %struct.LSIState, ptr %59, i32 0, i32 73
  store i32 0, ptr %rbc, align 8
  %60 = load ptr, ptr %s.addr, align 8
  %ua = getelementptr inbounds %struct.LSIState, ptr %60, i32 0, i32 74
  store i32 0, ptr %ua, align 4
  %61 = load ptr, ptr %s.addr, align 8
  %ia = getelementptr inbounds %struct.LSIState, ptr %61, i32 0, i32 75
  store i32 0, ptr %ia, align 16
  %62 = load ptr, ptr %s.addr, align 8
  %sbc = getelementptr inbounds %struct.LSIState, ptr %62, i32 0, i32 76
  store i32 0, ptr %sbc, align 4
  %63 = load ptr, ptr %s.addr, align 8
  %csbc = getelementptr inbounds %struct.LSIState, ptr %63, i32 0, i32 77
  store i32 0, ptr %csbc, align 8
  %64 = load ptr, ptr %s.addr, align 8
  %sbr = getelementptr inbounds %struct.LSIState, ptr %64, i32 0, i32 79
  store i8 0, ptr %sbr, align 4
  %65 = load ptr, ptr %s.addr, align 8
  %queue = getelementptr inbounds %struct.LSIState, ptr %65, i32 0, i32 16
  %66 = load ptr, ptr %queue, align 8
  %cmp = icmp eq ptr %66, null
  br i1 %cmp, label %if.then, label %if.else

if.then:                                          ; preds = %entry
  br label %if.end

if.else:                                          ; preds = %entry
  call void @__assert_fail(ptr noundef @.str.285, ptr noundef @.str.11, i32 noundef 416, ptr noundef @__PRETTY_FUNCTION__.lsi_soft_reset) #9
  unreachable

if.end:                                           ; preds = %if.then
  %67 = load ptr, ptr %s.addr, align 8
  %current = getelementptr inbounds %struct.LSIState, ptr %67, i32 0, i32 17
  %68 = load ptr, ptr %current, align 8
  %tobool = icmp ne ptr %68, null
  br i1 %tobool, label %if.else2, label %if.then1

if.then1:                                         ; preds = %if.end
  br label %if.end3

if.else2:                                         ; preds = %if.end
  call void @__assert_fail(ptr noundef @.str.286, ptr noundef @.str.11, i32 noundef 417, ptr noundef @__PRETTY_FUNCTION__.lsi_soft_reset) #9
  unreachable

if.end3:                                          ; preds = %if.then1
  ret void
}

; Function Attrs: nounwind sspstrong uwtable
define internal ptr @LSI53C895A(ptr noundef %obj) #0 {
entry:
  %obj.addr = alloca ptr, align 8
  store ptr %obj, ptr %obj.addr, align 8
  %0 = load ptr, ptr %obj.addr, align 8
  %call = call ptr @object_dynamic_cast_assert(ptr noundef %0, ptr noundef @.str, ptr noundef @.str.11, i32 noundef 312, ptr noundef @__func__.LSI53C895A)
  ret ptr %call
}

; Function Attrs: nounwind sspstrong uwtable
define internal void @lsi_scsi_reset(ptr noundef %dev) #0 {
entry:
  %dev.addr = alloca ptr, align 8
  %s = alloca ptr, align 8
  store ptr %dev, ptr %dev.addr, align 8
  %0 = load ptr, ptr %dev.addr, align 8
  %call = call ptr @LSI53C895A(ptr noundef %0)
  store ptr %call, ptr %s, align 8
  %1 = load ptr, ptr %s, align 8
  call void @lsi_soft_reset(ptr noundef %1)
  ret void
}