; Function Attrs: nounwind sspstrong uwtable
define internal void @lsi_scsi_reset(ptr noundef %dev) #0 {
entry:
  %_now.i.i.i = alloca %struct.timeval, align 8
  %call.i = tail call ptr @object_dynamic_cast_assert(ptr noundef %dev, ptr noundef nonnull @.str, ptr noundef nonnull @.str.11, i32 noundef 312, ptr noundef nonnull @__func__.LSI53C895A) #12
  call void @llvm.lifetime.start.p0(i64 16, ptr nonnull %_now.i.i.i)
  %0 = load i32, ptr @trace_events_enabled_count, align 4
  %tobool.i.i.i = icmp ne i32 %0, 0
  %1 = load i16, ptr @_TRACE_LSI_RESET_DSTATE, align 2
  %tobool4.i.i.i = icmp ne i16 %1, 0
  %or.cond.i.i.i = select i1 %tobool.i.i.i, i1 %tobool4.i.i.i, i1 false
  br i1 %or.cond.i.i.i, label %land.lhs.true5.i.i.i, label %trace_lsi_reset.exit.i

land.lhs.true5.i.i.i:                             ; preds = %entry
  %2 = load i32, ptr @qemu_loglevel, align 4
  %and.i.i.i.i = and i32 %2, 32768
  %cmp.i.not.i.i.i = icmp eq i32 %and.i.i.i.i, 0
  br i1 %cmp.i.not.i.i.i, label %trace_lsi_reset.exit.i, label %if.then.i.i.i

if.then.i.i.i:                                    ; preds = %land.lhs.true5.i.i.i
  %3 = load i8, ptr @message_with_timestamp, align 1
  %tobool7.i.i.i = trunc i8 %3 to i1
  br i1 %tobool7.i.i.i, label %if.then8.i.i.i, label %if.else.i.i.i

if.then8.i.i.i:                                   ; preds = %if.then.i.i.i
  %call9.i.i.i = call i32 @gettimeofday(ptr noundef nonnull %_now.i.i.i, ptr noundef null) #12
  %call10.i.i.i = tail call i32 @qemu_get_thread_id() #12
  %4 = load i64, ptr %_now.i.i.i, align 8
  %tv_usec.i.i.i = getelementptr inbounds nuw i8, ptr %_now.i.i.i, i64 8
  %5 = load i64, ptr %tv_usec.i.i.i, align 8
  tail call void (ptr, ...) @qemu_log(ptr noundef nonnull @.str.287, i32 noundef %call10.i.i.i, i64 noundef %4, i64 noundef %5) #12
  br label %trace_lsi_reset.exit.i

if.else.i.i.i:                                    ; preds = %if.then.i.i.i
  tail call void (ptr, ...) @qemu_log(ptr noundef nonnull @.str.288) #12
  br label %trace_lsi_reset.exit.i

trace_lsi_reset.exit.i:                           ; preds = %if.else.i.i.i, %if.then8.i.i.i, %land.lhs.true5.i.i.i, %entry
  call void @llvm.lifetime.end.p0(i64 16, ptr nonnull %_now.i.i.i)
  %carry.i = getelementptr inbounds nuw i8, ptr %call.i, i64 3528
  store i32 0, ptr %carry.i, align 8
  %msg_action.i = getelementptr inbounds nuw i8, ptr %call.i, i64 3536
  store i32 0, ptr %msg_action.i, align 16
  %msg_len.i = getelementptr inbounds nuw i8, ptr %call.i, i64 3540
  store i32 0, ptr %msg_len.i, align 4
  %waiting.i = getelementptr inbounds nuw i8, ptr %call.i, i64 3552
  store i32 0, ptr %waiting.i, align 16
  %dsa.i = getelementptr inbounds nuw i8, ptr %call.i, i64 3744
  %scratch.i = getelementptr inbounds nuw i8, ptr %call.i, i64 3868
  tail call void @llvm.memset.p0.i64(ptr noundef nonnull align 4 dereferenceable(72) %scratch.i, i8 0, i64 72, i1 false)
  %dcmd.i = getelementptr inbounds nuw i8, ptr %call.i, i64 3762
  tail call void @llvm.memset.p0.i64(ptr noundef nonnull align 16 dereferenceable(18) %dsa.i, i8 0, i64 18, i1 false)
  store i8 64, ptr %dcmd.i, align 2
  %dstat.i = getelementptr inbounds nuw i8, ptr %call.i, i64 3763
  %ctest2.i = getelementptr inbounds nuw i8, ptr %call.i, i64 3772
  tail call void @llvm.memset.p0.i64(ptr noundef nonnull align 1 dereferenceable(9) %dstat.i, i8 0, i64 9, i1 false)
  store i8 1, ptr %ctest2.i, align 4
  %ctest3.i = getelementptr inbounds nuw i8, ptr %call.i, i64 3773
  %dsp.i = getelementptr inbounds nuw i8, ptr %call.i, i64 3780
  %scntl0.i = getelementptr inbounds nuw i8, ptr %call.i, i64 3790
  tail call void @llvm.memset.p0.i64(ptr noundef nonnull align 1 dereferenceable(5) %ctest3.i, i8 0, i64 5, i1 false)
  tail call void @llvm.memset.p0.i64(ptr noundef nonnull align 4 dereferenceable(10) %dsp.i, i8 0, i64 10, i1 false)
  store i8 -64, ptr %scntl0.i, align 2
  %scntl1.i = getelementptr inbounds nuw i8, ptr %call.i, i64 3791
  %scid.i = getelementptr inbounds nuw i8, ptr %call.i, i64 3796
  tail call void @llvm.memset.p0.i64(ptr noundef nonnull align 1 dereferenceable(5) %scntl1.i, i8 0, i64 5, i1 false)
  store i8 7, ptr %scid.i, align 4
  %sxfer.i = getelementptr inbounds nuw i8, ptr %call.i, i64 3797
  %sbcl.i = getelementptr inbounds nuw i8, ptr %call.i, i64 3802
  %respid0.i = getelementptr inbounds nuw i8, ptr %call.i, i64 3808
  store i32 0, ptr %sxfer.i, align 1
  tail call void @llvm.memset.p0.i64(ptr noundef nonnull align 2 dereferenceable(6) %sbcl.i, i8 0, i64 6, i1 false)
  store i8 -128, ptr %respid0.i, align 16
  %respid1.i = getelementptr inbounds nuw i8, ptr %call.i, i64 3809
  store i8 0, ptr %respid1.i, align 1
  %mmrs.i = getelementptr inbounds nuw i8, ptr %call.i, i64 3812
  %sbr.i = getelementptr inbounds nuw i8, ptr %call.i, i64 3940
  store i8 0, ptr %sbr.i, align 4
  %queue.i = getelementptr inbounds nuw i8, ptr %call.i, i64 3720
  tail call void @llvm.memset.p0.i64(ptr noundef nonnull align 4 dereferenceable(56) %mmrs.i, i8 0, i64 56, i1 false)
  %6 = load ptr, ptr %queue.i, align 8
  %cmp.i = icmp eq ptr %6, null
  br i1 %cmp.i, label %if.end.i, label %if.else.i

if.else.i:                                        ; preds = %trace_lsi_reset.exit.i
  tail call void @__assert_fail(ptr noundef nonnull @.str.285, ptr noundef nonnull @.str.11, i32 noundef 416, ptr noundef nonnull @__PRETTY_FUNCTION__.lsi_soft_reset) #13
  unreachable

if.end.i:                                         ; preds = %trace_lsi_reset.exit.i
  %current.i = getelementptr inbounds nuw i8, ptr %call.i, i64 3736
  %7 = load ptr, ptr %current.i, align 8
  %tobool.not.i = icmp eq ptr %7, null
  br i1 %tobool.not.i, label %lsi_soft_reset.exit, label %if.else2.i

if.else2.i:                                       ; preds = %if.end.i
  tail call void @__assert_fail(ptr noundef nonnull @.str.286, ptr noundef nonnull @.str.11, i32 noundef 417, ptr noundef nonnull @__PRETTY_FUNCTION__.lsi_soft_reset) #13
  unreachable

lsi_soft_reset.exit:                              ; preds = %if.end.i
  ret void
}